target datalayout = "e-m:e-p270:32:32-p271:32:32-p272:64:64-i64:64-i128:128-f80:128-n8:16:32:64-S128"
target triple = "x86_64-pc-linux-gnu"

%struct.v_data = type { i32, ptr, ptr }

; Function Attrs: nounwind uwtable
define void @freeGraph(ptr noundef %0) #0 {
  %2 = alloca ptr, align 8
  store ptr %0, ptr %2, align 8, !tbaa !25
  %3 = load ptr, ptr %2, align 8, !tbaa !25
  %4 = icmp ne ptr %3, null
  br i1 %4, label %5, label %15

5:                                                ; preds = %1
  %6 = load ptr, ptr %2, align 8, !tbaa !25
  %7 = getelementptr inbounds %struct.v_data, ptr %6, i64 0
  %8 = getelementptr inbounds nuw %struct.v_data, ptr %7, i32 0, i32 1
  %9 = load ptr, ptr %8, align 8, !tbaa !81
  call void @free(ptr noundef %9) #12
  %10 = load ptr, ptr %2, align 8, !tbaa !25
  %11 = getelementptr inbounds %struct.v_data, ptr %10, i64 0
  %12 = getelementptr inbounds nuw %struct.v_data, ptr %11, i32 0, i32 2
  %13 = load ptr, ptr %12, align 8, !tbaa !78
  call void @free(ptr noundef %13) #12
  %14 = load ptr, ptr %2, align 8, !tbaa !25
  call void @free(ptr noundef %14) #12
  br label %15

15:                                               ; preds = %5, %1
  ret void
}