; Function Attrs: mustprogress nounwind willreturn uwtable
define void @freeGraph(ptr noundef captures(address_is_null) %0) local_unnamed_addr #7 {
  %.not = icmp eq ptr %0, null
  br i1 %.not, label %7, label %2

2:                                                ; preds = %1
  %3 = getelementptr inbounds nuw i8, ptr %0, i64 8
  %4 = load ptr, ptr %3, align 8, !tbaa !66
  tail call void @free(ptr noundef %4) #19
  %5 = getelementptr inbounds nuw i8, ptr %0, i64 16
  %6 = load ptr, ptr %5, align 8, !tbaa !70
  tail call void @free(ptr noundef %6) #19
  tail call void @free(ptr noundef nonnull %0) #19
  br label %7

7:                                                ; preds = %2, %1
  ret void
}